Certificate:
    Data:
        Version: 3 (0x2)
        Serial Number: 31 (0x1f)
    Signature Algorithm: sha256WithRSAEncryption
        Issuer: C=US, ST=Wisconsin, L=Milwaukee, O=Marginal Networks Ltd/emailAddress=nf+pki@marginal.net
        Validity
            Not Before: Jun 12 22:04:42 2017 GMT
            Not After : Jun 10 22:04:42 2027 GMT
        Subject: C=US, ST=New York, L=New York, O=Marginal Networks Ltd, CN=Marginal Networks Ltd CA 2017/emailAddress=nf+pki@marginal.net
        Subject Public Key Info:
            Public Key Algorithm: rsaEncryption
                Public-Key: (2048 bit)
                Modulus:
                    00:c0:85:1d:82:51:e3:13:2b:b4:a3:83:56:71:ce:
                    1f:f3:25:2f:48:3e:51:00:39:9a:a1:fa:a3:db:a0:
                    fb:46:bb:99:d3:62:66:03:33:f7:8c:c6:b8:27:fa:
                    99:fe:02:2d:13:26:cf:83:b2:22:fa:c1:8e:98:24:
                    1a:79:45:c9:d0:75:9c:9b:2c:c9:c7:12:03:27:9b:
                    e2:dd:6a:2e:62:12:0d:8d:e4:c6:93:53:47:6e:c8:
                    2a:b7:a9:bf:e9:ef:76:93:fc:83:23:e5:e9:22:8d:
                    44:1a:50:aa:f2:eb:61:cf:ff:c7:09:09:d3:0b:e8:
                    89:22:c7:ff:15:c0:b4:72:1c:22:71:15:df:b2:fe:
                    3a:23:fa:a3:f2:e6:23:f0:67:4f:5e:1e:08:8f:dc:
                    b5:c2:9f:dc:45:a1:91:2c:09:72:c3:42:73:27:35:
                    80:be:c8:2c:cf:c9:29:74:55:5d:17:2d:04:76:b3:
                    fd:fe:fc:f9:58:45:c5:aa:c6:54:3e:5a:13:d7:f4:
                    62:85:61:85:b4:26:3e:43:be:f1:06:38:7d:47:cf:
                    09:0a:e1:dd:3b:50:2f:2c:13:01:b7:b2:52:1e:b3:
                    d9:d7:fe:18:14:2e:5d:d5:25:e6:86:c3:cc:77:38:
                    d0:f5:a4:9b:81:67:f5:5b:be:9f:1e:d2:cf:55:12:
                    b7:f5
                Exponent: 65537 (0x10001)
        X509v3 extensions:
            X509v3 Subject Key Identifier: 
                BD:DC:1A:C7:3D:B6:87:A7:98:73:7C:12:4D:F7:13:2A:EF:4E:25:C4
            X509v3 Authority Key Identifier: 
                keyid:05:E4:71:F3:3E:C6:25:00:36:E0:0F:3E:D4:5E:CC:CD:52:04:15:5C
                DirName:/C=US/ST=Wisconsin/L=Milwaukee/O=Marginal Networks Ltd/emailAddress=nf+pki@marginal.net
                serial:BF:6B:82:9E:4C:79:D1:05

            X509v3 Basic Constraints: 
                CA:TRUE
    Signature Algorithm: sha256WithRSAEncryption
         4e:7e:69:c3:b4:63:07:fd:3c:40:86:28:77:1c:57:1b:ff:eb:
         e2:95:ed:9e:9c:64:4f:0e:a0:37:51:92:5d:44:20:5f:de:d2:
         b1:0c:22:a8:fb:7a:95:9a:6a:5f:a1:2e:bb:6c:c2:d2:ba:36:
         db:74:b0:56:3b:47:3d:55:25:94:9a:9c:54:a5:76:d4:e8:de:
         55:fb:57:55:85:7f:aa:b4:08:25:18:5f:30:bf:ae:8c:60:01:
         ca:9d:63:52:cb:80:6f:ab:86:5d:3f:fb:6e:a2:9d:58:99:4f:
         e3:a2:70:72:51:f5:c1:0f:2f:df:af:5a:16:47:57:6f:c1:81:
         56:04:12:25:78:2f:dd:1d:7c:d4:31:a9:91:3f:e7:fd:ff:20:
         00:14:d3:5b:73:e6:65:6a:81:ad:ae:be:05:de:00:e4:bb:b1:
         8b:88:2d:32:b4:a2:8a:50:ff:20:6b:65:b5:5d:0b:b8:83:d9:
         cc:de:91:c7:6f:1f:9c:72:f6:c2:ab:bf:59:e6:11:79:9d:68:
         34:07:7d:ad:66:82:fc:45:05:e4:08:dd:86:b0:e0:3a:e4:b3:
         4b:09:c2:d1:ee:48:35:63:8a:d0:78:43:2f:db:24:ef:68:9e:
         54:44:5a:cc:8e:d8:9d:79:ee:76:94:f6:7a:d0:2f:67:21:c4:
         a5:d9:22:55
-----BEGIN CERTIFICATE-----
MIIEczCCA1ugAwIBAgIBHzANBgkqhkiG9w0BAQsFADB5MQswCQYDVQQGEwJVUzES
MBAGA1UECBMJV2lzY29uc2luMRIwEAYDVQQHEwlNaWx3YXVrZWUxHjAcBgNVBAoT
FU1hcmdpbmFsIE5ldHdvcmtzIEx0ZDEiMCAGCSqGSIb3DQEJARYTbmYrcGtpQG1h
cmdpbmFsLm5ldDAeFw0xNzA2MTIyMjA0NDJaFw0yNzA2MTAyMjA0NDJaMIGfMQsw
CQYDVQQGEwJVUzERMA8GA1UECBMITmV3IFlvcmsxETAPBgNVBAcTCE5ldyBZb3Jr
MR4wHAYDVQQKExVNYXJnaW5hbCBOZXR3b3JrcyBMdGQxJjAkBgNVBAMTHU1hcmdp
bmFsIE5ldHdvcmtzIEx0ZCBDQSAyMDE3MSIwIAYJKoZIhvcNAQkBFhNuZitwa2lA
bWFyZ2luYWwubmV0MIIBIjANBgkqhkiG9w0BAQEFAAOCAQ8AMIIBCgKCAQEAwIUd
glHjEyu0o4NWcc4f8yUvSD5RADmaofqj26D7RruZ02JmAzP3jMa4J/qZ/gItEybP
g7Ii+sGOmCQaeUXJ0HWcmyzJxxIDJ5vi3WouYhINjeTGk1NHbsgqt6m/6e92k/yD
I+XpIo1EGlCq8uthz//HCQnTC+iJIsf/FcC0chwicRXfsv46I/qj8uYj8GdPXh4I
j9y1wp/cRaGRLAlyw0JzJzWAvsgsz8kpdFVdFy0EdrP9/vz5WEXFqsZUPloT1/Ri
hWGFtCY+Q77xBjh9R88JCuHdO1AvLBMBt7JSHrPZ1/4YFC5d1SXmhsPMdzjQ9aSb
gWf1W76fHtLPVRK39QIDAQABo4HeMIHbMB0GA1UdDgQWBBS93BrHPbaHp5hzfBJN
9xMq704lxDCBqwYDVR0jBIGjMIGggBQF5HHzPsYlADbgDz7UXszNUgQVXKF9pHsw
eTELMAkGA1UEBhMCVVMxEjAQBgNVBAgTCVdpc2NvbnNpbjESMBAGA1UEBxMJTWls
d2F1a2VlMR4wHAYDVQQKExVNYXJnaW5hbCBOZXR3b3JrcyBMdGQxIjAgBgkqhkiG
9w0BCQEWE25mK3BraUBtYXJnaW5hbC5uZXSCCQC/a4KeTHnRBTAMBgNVHRMEBTAD
AQH/MA0GCSqGSIb3DQEBCwUAA4IBAQBOfmnDtGMH/TxAhih3HFcb/+vile2enGRP
DqA3UZJdRCBf3tKxDCKo+3qVmmpfoS67bMLSujbbdLBWO0c9VSWUmpxUpXbU6N5V
+1dVhX+qtAglGF8wv66MYAHKnWNSy4Bvq4ZdP/tuop1YmU/jonByUfXBDy/fr1oW
R1dvwYFWBBIleC/dHXzUMamRP+f9/yAAFNNbc+ZlaoGtrr4F3gDku7GLiC0ytKKK
UP8ga2W1XQu4g9nM3pHHbx+ccvbCq79Z5hF5nWg0B32tZoL8RQXkCN2GsOA65LNL
CcLR7kg1Y4rQeEMv2yTvaJ5URFrMjtidee52lPZ60C9nIcSl2SJV
-----END CERTIFICATE-----
